target datalayout = "e-m:e-p270:32:32-p271:32:32-p272:64:64-i64:64-i128:128-f80:128-n8:16:32:64-S128"
target triple = "x86_64-pc-linux-gnu"

%struct.lua_State = type { %struct.GCRef, i8, i8, i8, i8, %struct.MRef, %struct.GCRef, ptr, ptr, %struct.MRef, %struct.MRef, %struct.GCRef, %struct.GCRef, ptr, i32 }
%struct.MRef = type { i64 }
%struct.GCRef = type { i64 }
%union.TValue = type { i64 }
%struct.CTState = type { ptr, i32, i32, ptr, ptr, ptr, %struct.CCallback, [128 x i16] }
%struct.CCallback = type { [8 x %union.FPRCBArg], [8 x i64], ptr, ptr, ptr, i32, i32, i32 }
%union.FPRCBArg = type { double }
%struct.global_State = type { ptr, ptr, %struct.GCState, %struct.GCstr, i8, i8, i8, i8, %struct.StrInternState, i32, %struct.GCRef, %struct.SBuf, %union.TValue, %union.TValue, %struct.Node, %union.TValue, %struct.GCupval, i32, i32, ptr, ptr, ptr, i32, i32, %struct.GCRef, %struct.MRef, %struct.MRef, %struct.PRNGState, [39 x %struct.GCRef] }
%struct.GCState = type { i64, i64, i8, i8, i8, i8, i32, %struct.GCRef, %struct.MRef, %struct.GCRef, %struct.GCRef, %struct.GCRef, %struct.GCRef, i64, i64, i32, i32, %struct.MRef }
%struct.GCstr = type { %struct.GCRef, i8, i8, i8, i8, i32, i32, i32 }
%struct.StrInternState = type { ptr, i32, i32, i32, i8, i8, i8, i8, i64 }
%struct.SBuf = type { ptr, ptr, ptr, %struct.MRef }
%struct.Node = type { %union.TValue, %union.TValue, %struct.MRef }
%struct.GCupval = type { %struct.GCRef, i8, i8, i8, i8, %union.anon, %struct.MRef, i32 }
%union.anon = type { %struct.anon.1 }
%struct.anon.1 = type { %struct.GCRef, %struct.GCRef }
%struct.PRNGState = type { [4 x i64] }
%struct.GChead = type { %struct.GCRef, i8, i8, i8, i8, %struct.GCRef, %struct.GCRef, %struct.GCRef }
%struct.GCtab = type { %struct.GCRef, i8, i8, i8, i8, %struct.MRef, %struct.GCRef, %struct.GCRef, %struct.MRef, i32, i32, %struct.MRef }

@lj_lib_init_ffi_meta = internal constant [147 x i8] c"\A49\13\07__index\0A__newindex\04__eq\05__len\04__lt\04__le\08__concat\06__call\05__add\05__sub\05__mul\05__div\05__mod\05__pow\05__unm\0A__tostring\07__pairs\08__ipairs\C3ffi\CB__metatable\FA\FF", align 16
@lj_lib_init_ffi_clib = internal constant [28 x i8] c"\B69\03\07__index\0A__newindex\04__gc\FF", align 16
@lj_lib_cf_ffi_clib = internal constant [3 x ptr] [ptr @lj_cf_ffi_clib___index, ptr @lj_cf_ffi_clib___newindex, ptr @lj_cf_ffi_clib___gc], align 16
@lj_lib_init_ffi_callback = internal constant [24 x i8] c"\B99\03\04free\03set\FC\01\C7__index\FA\FF", align 16
@lj_lib_cf_ffi_callback = internal constant [2 x ptr] [ptr @lj_cf_ffi_callback_free, ptr @lj_cf_ffi_callback_set], align 16
@.str = private unnamed_addr constant [6 x i8] c"Linux\00", align 1
@.str.1 = private unnamed_addr constant [4 x i8] c"x64\00", align 1
@lj_lib_init_ffi = internal constant [136 x i8] c"\BB9\16\04cdef\03new\04cast\06typeof\08typeinfo\06istype\06sizeof\07alignof\08offsetof\05errno\06string\04copy\04fill\03abi\FC\07\C0\FA\08metatype\02gc\FC\05\C0\FA\04load\FC\04\C1C\FA\FC\03\C2os\FA\FC\02\C4arch\FA\FF", align 16
@.str.2 = private unnamed_addr constant [24 x i8] c"store to dead GC object\00", align 1
@.str.3 = private unnamed_addr constant [23 x i8] c"copy of dead GC object\00", align 1
@.str.13 = private unnamed_addr constant [8 x i8] c"_LOADED\00", align 1
@.str.14 = private unnamed_addr constant [4 x i8] c"ffi\00", align 1

; Function Attrs: alwaysinline nounwind uwtable
define internal void @checklivetv(ptr noundef %0, ptr noundef %1, ptr noundef %2) #3 {
  %4 = alloca ptr, align 8
  %5 = alloca ptr, align 8
  %6 = alloca ptr, align 8
  store ptr %0, ptr %4, align 8, !tbaa !4
  store ptr %1, ptr %5, align 8, !tbaa !30
  store ptr %2, ptr %6, align 8, !tbaa !35
  ret void
}

; Function Attrs: alwaysinline nounwind uwtable
define internal void @setgcVraw(ptr noundef %0, ptr noundef %1, i32 noundef %2) #3 {
  %4 = alloca ptr, align 8
  %5 = alloca ptr, align 8
  %6 = alloca i32, align 4
  store ptr %0, ptr %4, align 8, !tbaa !30
  store ptr %1, ptr %5, align 8, !tbaa !32
  store i32 %2, ptr %6, align 4, !tbaa !34
  %7 = load ptr, ptr %5, align 8, !tbaa !32
  %8 = ptrtoint ptr %7 to i64
  %9 = load i32, ptr %6, align 4, !tbaa !34
  %10 = zext i32 %9 to i64
  %11 = shl i64 %10, 47
  %12 = or i64 %8, %11
  %13 = load ptr, ptr %4, align 8, !tbaa !30
  %14 = getelementptr inbounds nuw %struct.GCRef, ptr %13, i32 0, i32 0
  store i64 %12, ptr %14, align 8, !tbaa !26
  ret void
}

; Function Attrs: alwaysinline nounwind uwtable
define internal void @lj_gc_barrierback(ptr noundef %0, ptr noundef %1) #3 {
  %3 = alloca ptr, align 8
  %4 = alloca ptr, align 8
  %5 = alloca ptr, align 8
  store ptr %0, ptr %3, align 8, !tbaa !80
  store ptr %1, ptr %4, align 8, !tbaa !31
  call void @llvm.lifetime.start.p0(i64 8, ptr %5) #10
  %6 = load ptr, ptr %4, align 8, !tbaa !31
  store ptr %6, ptr %5, align 8, !tbaa !32
  %7 = load ptr, ptr %5, align 8, !tbaa !32
  %8 = getelementptr inbounds nuw %struct.GChead, ptr %7, i32 0, i32 1
  %9 = load i8, ptr %8, align 8, !tbaa !26
  %10 = zext i8 %9 to i32
  %11 = and i32 %10, 251
  %12 = trunc i32 %11 to i8
  store i8 %12, ptr %8, align 8, !tbaa !26
  %13 = load ptr, ptr %3, align 8, !tbaa !80
  %14 = getelementptr inbounds nuw %struct.global_State, ptr %13, i32 0, i32 2
  %15 = getelementptr inbounds nuw %struct.GCState, ptr %14, i32 0, i32 10
  %16 = getelementptr inbounds nuw %struct.GCRef, ptr %15, i32 0, i32 0
  %17 = load i64, ptr %16, align 8, !tbaa !81
  %18 = load ptr, ptr %4, align 8, !tbaa !31
  %19 = getelementptr inbounds nuw %struct.GCtab, ptr %18, i32 0, i32 6
  %20 = getelementptr inbounds nuw %struct.GCRef, ptr %19, i32 0, i32 0
  store i64 %17, ptr %20, align 8, !tbaa !82
  %21 = load ptr, ptr %5, align 8, !tbaa !32
  %22 = ptrtoint ptr %21 to i64
  %23 = load ptr, ptr %3, align 8, !tbaa !80
  %24 = getelementptr inbounds nuw %struct.global_State, ptr %23, i32 0, i32 2
  %25 = getelementptr inbounds nuw %struct.GCState, ptr %24, i32 0, i32 10
  %26 = getelementptr inbounds nuw %struct.GCRef, ptr %25, i32 0, i32 0
  store i64 %22, ptr %26, align 8, !tbaa !81
  call void @llvm.lifetime.end.p0(i64 8, ptr %5) #10
  ret void
}

; Function Attrs: alwaysinline nounwind uwtable
define internal void @copyTV(ptr noundef %0, ptr noundef %1, ptr noundef %2) #3 {
  %4 = alloca ptr, align 8
  %5 = alloca ptr, align 8
  %6 = alloca ptr, align 8
  store ptr %0, ptr %4, align 8, !tbaa !4
  store ptr %1, ptr %5, align 8, !tbaa !30
  store ptr %2, ptr %6, align 8, !tbaa !30
  %7 = load ptr, ptr %5, align 8, !tbaa !30
  %8 = load ptr, ptr %6, align 8, !tbaa !30
  call void @llvm.memcpy.p0.p0.i64(ptr align 8 %7, ptr align 8 %8, i64 8, i1 false), !tbaa.struct !63
  %9 = load ptr, ptr %4, align 8, !tbaa !4
  %10 = load ptr, ptr %5, align 8, !tbaa !30
  call void @checklivetv(ptr noundef %9, ptr noundef %10, ptr noundef @.str.3)
  ret void
}

; Function Attrs: alwaysinline nounwind uwtable
define internal void @setgcV(ptr noundef %0, ptr noundef %1, ptr noundef %2, i32 noundef %3) #3 {
  %5 = alloca ptr, align 8
  %6 = alloca ptr, align 8
  %7 = alloca ptr, align 8
  %8 = alloca i32, align 4
  store ptr %0, ptr %5, align 8, !tbaa !4
  store ptr %1, ptr %6, align 8, !tbaa !30
  store ptr %2, ptr %7, align 8, !tbaa !32
  store i32 %3, ptr %8, align 4, !tbaa !34
  %9 = load ptr, ptr %6, align 8, !tbaa !30
  %10 = load ptr, ptr %7, align 8, !tbaa !32
  %11 = load i32, ptr %8, align 4, !tbaa !34
  call void @setgcVraw(ptr noundef %9, ptr noundef %10, i32 noundef %11)
  %12 = load ptr, ptr %5, align 8, !tbaa !4
  %13 = load ptr, ptr %6, align 8, !tbaa !30
  call void @checklivetv(ptr noundef %12, ptr noundef %13, ptr noundef @.str.2)
  ret void
}

; Function Attrs: nounwind uwtable
define internal void @ffi_register_module(ptr noundef %0) #0 {
  %2 = alloca ptr, align 8
  %3 = alloca ptr, align 8
  %4 = alloca ptr, align 8
  store ptr %0, ptr %2, align 8, !tbaa !4
  call void @llvm.lifetime.start.p0(i64 8, ptr %3) #10
  %5 = load ptr, ptr %2, align 8, !tbaa !4
  %6 = getelementptr inbounds nuw %struct.lua_State, ptr %5, i32 0, i32 5
  %7 = getelementptr inbounds nuw %struct.MRef, ptr %6, i32 0, i32 0
  %8 = load i64, ptr %7, align 8, !tbaa !27
  %9 = inttoptr i64 %8 to ptr
  %10 = getelementptr inbounds nuw %struct.global_State, ptr %9, i32 0, i32 15
  %11 = getelementptr inbounds nuw %struct.GCRef, ptr %10, i32 0, i32 0
  %12 = load i64, ptr %11, align 8, !tbaa !26
  %13 = and i64 %12, 140737488355327
  %14 = inttoptr i64 %13 to ptr
  %15 = load ptr, ptr %2, align 8, !tbaa !4
  %16 = call ptr @lj_str_new(ptr noundef %15, ptr noundef @.str.13, i64 noundef 7)
  %17 = call ptr @lj_tab_getstr(ptr noundef %14, ptr noundef %16)
  store ptr %17, ptr %3, align 8, !tbaa !30
  %18 = load ptr, ptr %3, align 8, !tbaa !30
  %19 = icmp ne ptr %18, null
  br i1 %19, label %20, label %62

20:                                               ; preds = %1
  %21 = load ptr, ptr %3, align 8, !tbaa !30
  %22 = load i64, ptr %21, align 8, !tbaa !26
  %23 = ashr i64 %22, 47
  %24 = trunc i64 %23 to i32
  %25 = icmp eq i32 %24, -12
  br i1 %25, label %26, label %62

26:                                               ; preds = %20
  call void @llvm.lifetime.start.p0(i64 8, ptr %4) #10
  %27 = load ptr, ptr %3, align 8, !tbaa !30
  %28 = getelementptr inbounds nuw %struct.GCRef, ptr %27, i32 0, i32 0
  %29 = load i64, ptr %28, align 8, !tbaa !26
  %30 = and i64 %29, 140737488355327
  %31 = inttoptr i64 %30 to ptr
  store ptr %31, ptr %4, align 8, !tbaa !31
  %32 = load ptr, ptr %2, align 8, !tbaa !4
  %33 = load ptr, ptr %2, align 8, !tbaa !4
  %34 = load ptr, ptr %4, align 8, !tbaa !31
  %35 = load ptr, ptr %2, align 8, !tbaa !4
  %36 = call ptr @lj_str_new(ptr noundef %35, ptr noundef @.str.14, i64 noundef 3)
  %37 = call ptr @lj_tab_setstr(ptr noundef %33, ptr noundef %34, ptr noundef %36)
  %38 = load ptr, ptr %2, align 8, !tbaa !4
  %39 = getelementptr inbounds nuw %struct.lua_State, ptr %38, i32 0, i32 8
  %40 = load ptr, ptr %39, align 8, !tbaa !11
  %41 = getelementptr inbounds %union.TValue, ptr %40, i64 -1
  call void @copyTV(ptr noundef %32, ptr noundef %37, ptr noundef %41)
  %42 = load ptr, ptr %4, align 8, !tbaa !31
  %43 = getelementptr inbounds nuw %struct.GChead, ptr %42, i32 0, i32 1
  %44 = load i8, ptr %43, align 8, !tbaa !26
  %45 = zext i8 %44 to i32
  %46 = and i32 %45, 4
  %47 = icmp ne i32 %46, 0
  %48 = xor i1 %47, true
  %49 = xor i1 %48, true
  %50 = zext i1 %49 to i32
  %51 = sext i32 %50 to i64
  %52 = call i64 @llvm.expect.i64(i64 %51, i64 0)
  %53 = icmp ne i64 %52, 0
  br i1 %53, label %54, label %61

54:                                               ; preds = %26
  %55 = load ptr, ptr %2, align 8, !tbaa !4
  %56 = getelementptr inbounds nuw %struct.lua_State, ptr %55, i32 0, i32 5
  %57 = getelementptr inbounds nuw %struct.MRef, ptr %56, i32 0, i32 0
  %58 = load i64, ptr %57, align 8, !tbaa !27
  %59 = inttoptr i64 %58 to ptr
  %60 = load ptr, ptr %4, align 8, !tbaa !31
  call void @lj_gc_barrierback(ptr noundef %59, ptr noundef %60)
  br label %61

61:                                               ; preds = %54, %26
  call void @llvm.lifetime.end.p0(i64 8, ptr %4) #10
  br label %62

62:                                               ; preds = %61, %20, %1
  call void @llvm.lifetime.end.p0(i64 8, ptr %3) #10
  ret void
}

; Function Attrs: alwaysinline nounwind uwtable
define internal void @settabV(ptr noundef %0, ptr noundef %1, ptr noundef %2) #3 {
  %4 = alloca ptr, align 8
  %5 = alloca ptr, align 8
  %6 = alloca ptr, align 8
  store ptr %0, ptr %4, align 8, !tbaa !4
  store ptr %1, ptr %5, align 8, !tbaa !30
  store ptr %2, ptr %6, align 8, !tbaa !31
  %7 = load ptr, ptr %4, align 8, !tbaa !4
  %8 = load ptr, ptr %5, align 8, !tbaa !30
  %9 = load ptr, ptr %6, align 8, !tbaa !31
  call void @setgcV(ptr noundef %7, ptr noundef %8, ptr noundef %9, i32 noundef -12)
  ret void
}

; Function Attrs: nounwind uwtable
define dso_local i32 @luaopen_ffi(ptr noundef %0) #0 {
  %2 = alloca ptr, align 8
  %3 = alloca ptr, align 8
  store ptr %0, ptr %2, align 8, !tbaa !4
  call void @llvm.lifetime.start.p0(i64 8, ptr %3) #10
  %4 = load ptr, ptr %2, align 8, !tbaa !4
  %5 = call ptr @lj_ctype_init(ptr noundef %4)
  store ptr %5, ptr %3, align 8, !tbaa !9
  %6 = load ptr, ptr %2, align 8, !tbaa !4
  %7 = load ptr, ptr %2, align 8, !tbaa !4
  %8 = getelementptr inbounds nuw %struct.lua_State, ptr %7, i32 0, i32 8
  %9 = load ptr, ptr %8, align 8, !tbaa !11
  %10 = getelementptr inbounds nuw %union.TValue, ptr %9, i32 1
  store ptr %10, ptr %8, align 8, !tbaa !11
  %11 = load ptr, ptr %2, align 8, !tbaa !4
  %12 = call ptr @lj_tab_new(ptr noundef %11, i32 noundef 0, i32 noundef 1)
  %13 = load ptr, ptr %3, align 8, !tbaa !9
  %14 = getelementptr inbounds nuw %struct.CTState, ptr %13, i32 0, i32 5
  store ptr %12, ptr %14, align 8, !tbaa !18
  call void @settabV(ptr noundef %6, ptr noundef %9, ptr noundef %12)
  %15 = load ptr, ptr %2, align 8, !tbaa !4
  call void @lj_lib_register(ptr noundef %15, ptr noundef null, ptr noundef @lj_lib_init_ffi_meta, ptr noundef @lj_lib_cf_ffi_meta)
  %16 = load ptr, ptr %2, align 8, !tbaa !4
  %17 = getelementptr inbounds nuw %struct.lua_State, ptr %16, i32 0, i32 8
  %18 = load ptr, ptr %17, align 8, !tbaa !11
  %19 = getelementptr inbounds %union.TValue, ptr %18, i64 -1
  %20 = getelementptr inbounds nuw %struct.GCRef, ptr %19, i32 0, i32 0
  %21 = load i64, ptr %20, align 8, !tbaa !26
  %22 = and i64 %21, 140737488355327
  %23 = inttoptr i64 %22 to ptr
  %24 = ptrtoint ptr %23 to i64
  %25 = load ptr, ptr %2, align 8, !tbaa !4
  %26 = getelementptr inbounds nuw %struct.lua_State, ptr %25, i32 0, i32 5
  %27 = getelementptr inbounds nuw %struct.MRef, ptr %26, i32 0, i32 0
  %28 = load i64, ptr %27, align 8, !tbaa !27
  %29 = inttoptr i64 %28 to ptr
  %30 = getelementptr inbounds nuw %struct.global_State, ptr %29, i32 0, i32 28
  %31 = getelementptr inbounds nuw [39 x %struct.GCRef], ptr %30, i64 0, i64 32
  %32 = getelementptr inbounds nuw %struct.GCRef, ptr %31, i32 0, i32 0
  store i64 %24, ptr %32, align 8, !tbaa !28
  %33 = load ptr, ptr %2, align 8, !tbaa !4
  call void @lj_lib_register(ptr noundef %33, ptr noundef null, ptr noundef @lj_lib_init_ffi_clib, ptr noundef @lj_lib_cf_ffi_clib)
  %34 = load ptr, ptr %2, align 8, !tbaa !4
  call void @lj_lib_register(ptr noundef %34, ptr noundef null, ptr noundef @lj_lib_init_ffi_callback, ptr noundef @lj_lib_cf_ffi_callback)
  %35 = load ptr, ptr %2, align 8, !tbaa !4
  %36 = load ptr, ptr %2, align 8, !tbaa !4
  %37 = load ptr, ptr %3, align 8, !tbaa !9
  %38 = getelementptr inbounds nuw %struct.CTState, ptr %37, i32 0, i32 5
  %39 = load ptr, ptr %38, align 8, !tbaa !18
  %40 = load ptr, ptr %3, align 8, !tbaa !9
  %41 = getelementptr inbounds nuw %struct.CTState, ptr %40, i32 0, i32 4
  %42 = load ptr, ptr %41, align 8, !tbaa !29
  %43 = getelementptr inbounds nuw %struct.global_State, ptr %42, i32 0, i32 3
  %44 = call ptr @lj_tab_setstr(ptr noundef %36, ptr noundef %39, ptr noundef %43)
  %45 = load ptr, ptr %2, align 8, !tbaa !4
  %46 = getelementptr inbounds nuw %struct.lua_State, ptr %45, i32 0, i32 8
  %47 = load ptr, ptr %46, align 8, !tbaa !11
  %48 = getelementptr inbounds %union.TValue, ptr %47, i64 -1
  %49 = getelementptr inbounds nuw %struct.GCRef, ptr %48, i32 0, i32 0
  %50 = load i64, ptr %49, align 8, !tbaa !26
  %51 = and i64 %50, 140737488355327
  %52 = inttoptr i64 %51 to ptr
  call void @settabV(ptr noundef %35, ptr noundef %44, ptr noundef %52)
  %53 = load ptr, ptr %2, align 8, !tbaa !4
  %54 = getelementptr inbounds nuw %struct.lua_State, ptr %53, i32 0, i32 8
  %55 = load ptr, ptr %54, align 8, !tbaa !11
  %56 = getelementptr inbounds %union.TValue, ptr %55, i32 -1
  store ptr %56, ptr %54, align 8, !tbaa !11
  %57 = load ptr, ptr %2, align 8, !tbaa !4
  %58 = load ptr, ptr %2, align 8, !tbaa !4
  %59 = getelementptr inbounds nuw %struct.lua_State, ptr %58, i32 0, i32 8
  %60 = load ptr, ptr %59, align 8, !tbaa !11
  %61 = getelementptr inbounds %union.TValue, ptr %60, i64 -1
  %62 = getelementptr inbounds nuw %struct.GCRef, ptr %61, i32 0, i32 0
  %63 = load i64, ptr %62, align 8, !tbaa !26
  %64 = and i64 %63, 140737488355327
  %65 = inttoptr i64 %64 to ptr
  call void @lj_clib_default(ptr noundef %57, ptr noundef %65)
  %66 = load ptr, ptr %2, align 8, !tbaa !4
  call void @lua_pushlstring(ptr noundef %66, ptr noundef @.str, i64 noundef 5)
  %67 = load ptr, ptr %2, align 8, !tbaa !4
  call void @lua_pushlstring(ptr noundef %67, ptr noundef @.str.1, i64 noundef 3)
  %68 = load ptr, ptr %2, align 8, !tbaa !4
  call void @lj_lib_register(ptr noundef %68, ptr noundef null, ptr noundef @lj_lib_init_ffi, ptr noundef @lj_lib_cf_ffi)
  %69 = load ptr, ptr %2, align 8, !tbaa !4
  call void @ffi_register_module(ptr noundef %69)
  call void @llvm.lifetime.end.p0(i64 8, ptr %3) #10
  ret i32 1
}