; Function Attrs: nounwind uwtable
define dso_local noundef i32 @luaopen_ffi(ptr noundef %0) local_unnamed_addr #0 {
  %2 = tail call ptr @lj_ctype_init(ptr noundef %0) #9
  %3 = getelementptr inbounds nuw i8, ptr %0, i64 40
  %4 = load ptr, ptr %3, align 8, !tbaa !4
  %5 = getelementptr inbounds nuw i8, ptr %4, i64 8
  store ptr %5, ptr %3, align 8, !tbaa !4
  %6 = tail call ptr @lj_tab_new(ptr noundef %0, i32 noundef 0, i32 noundef 1) #9
  %7 = getelementptr inbounds nuw i8, ptr %2, i64 32
  store ptr %6, ptr %7, align 8, !tbaa !14
  %8 = ptrtoint ptr %6 to i64
  %9 = or i64 %8, -1688849860263936
  store i64 %9, ptr %4, align 8, !tbaa !23
  tail call void @lj_lib_register(ptr noundef %0, ptr noundef null, ptr noundef nonnull @lj_lib_init_ffi_meta, ptr noundef nonnull @lj_lib_cf_ffi_meta) #9
  %10 = load ptr, ptr %3, align 8, !tbaa !4
  %11 = getelementptr inbounds i8, ptr %10, i64 -8
  %12 = load i64, ptr %11, align 8, !tbaa !23
  %13 = and i64 %12, 140737488355327
  %14 = getelementptr inbounds nuw i8, ptr %0, i64 16
  %15 = load i64, ptr %14, align 8, !tbaa !24
  %16 = inttoptr i64 %15 to ptr
  %17 = getelementptr inbounds nuw i8, ptr %16, i64 680
  store i64 %13, ptr %17, align 8, !tbaa !25
  tail call void @lj_lib_register(ptr noundef %0, ptr noundef null, ptr noundef nonnull @lj_lib_init_ffi_clib, ptr noundef nonnull @lj_lib_cf_ffi_clib) #9
  tail call void @lj_lib_register(ptr noundef %0, ptr noundef null, ptr noundef nonnull @lj_lib_init_ffi_callback, ptr noundef nonnull @lj_lib_cf_ffi_callback) #9
  %18 = load ptr, ptr %7, align 8, !tbaa !14
  %19 = getelementptr inbounds nuw i8, ptr %2, i64 24
  %20 = load ptr, ptr %19, align 8, !tbaa !26
  %21 = getelementptr inbounds nuw i8, ptr %20, i64 120
  %22 = tail call ptr @lj_tab_setstr(ptr noundef %0, ptr noundef %18, ptr noundef nonnull %21) #9
  %23 = load ptr, ptr %3, align 8, !tbaa !4
  %24 = getelementptr inbounds i8, ptr %23, i64 -8
  %25 = load i64, ptr %24, align 8, !tbaa !23
  %26 = and i64 %25, 140737488355327
  %27 = or disjoint i64 %26, -1688849860263936
  store i64 %27, ptr %22, align 8, !tbaa !23
  %28 = load ptr, ptr %3, align 8, !tbaa !4
  %29 = getelementptr inbounds i8, ptr %28, i64 -8
  store ptr %29, ptr %3, align 8, !tbaa !4
  %30 = getelementptr inbounds i8, ptr %28, i64 -16
  %31 = load i64, ptr %30, align 8, !tbaa !23
  %32 = and i64 %31, 140737488355327
  %33 = inttoptr i64 %32 to ptr
  tail call void @lj_clib_default(ptr noundef %0, ptr noundef %33) #9
  tail call void @lua_pushlstring(ptr noundef %0, ptr noundef nonnull @.str, i64 noundef 5) #9
  tail call void @lua_pushlstring(ptr noundef %0, ptr noundef nonnull @.str.1, i64 noundef 3) #9
  tail call void @lj_lib_register(ptr noundef %0, ptr noundef null, ptr noundef nonnull @lj_lib_init_ffi, ptr noundef nonnull @lj_lib_cf_ffi) #9
  %34 = load i64, ptr %14, align 8, !tbaa !24
  %35 = inttoptr i64 %34 to ptr
  %36 = getelementptr inbounds nuw i8, ptr %35, i64 272
  %37 = load i64, ptr %36, align 8, !tbaa !23
  %38 = and i64 %37, 140737488355327
  %39 = inttoptr i64 %38 to ptr
  %40 = tail call ptr @lj_str_new(ptr noundef %0, ptr noundef nonnull @.str.13, i64 noundef 7) #9
  %41 = tail call ptr @lj_tab_getstr(ptr noundef %39, ptr noundef %40) #9
  %.not.i = icmp eq ptr %41, null
  br i1 %.not.i, label %ffi_register_module.exit, label %42

42:                                               ; preds = %1
  %43 = load i64, ptr %41, align 8, !tbaa !23
  %.mask.i = and i64 %43, -140737488355328
  %44 = icmp eq i64 %.mask.i, -1688849860263936
  br i1 %44, label %45, label %ffi_register_module.exit

45:                                               ; preds = %42
  %46 = and i64 %43, 140737488355327
  %47 = inttoptr i64 %46 to ptr
  %48 = tail call ptr @lj_str_new(ptr noundef nonnull %0, ptr noundef nonnull @.str.14, i64 noundef 3) #9
  %49 = tail call ptr @lj_tab_setstr(ptr noundef nonnull %0, ptr noundef %47, ptr noundef %48) #9
  %50 = load ptr, ptr %3, align 8, !tbaa !4
  %51 = getelementptr inbounds i8, ptr %50, i64 -8
  %52 = load i64, ptr %51, align 8, !tbaa !23
  store i64 %52, ptr %49, align 8, !tbaa !23
  %53 = getelementptr inbounds nuw i8, ptr %47, i64 8
  %54 = load i8, ptr %53, align 8, !tbaa !23
  %55 = and i8 %54, 4
  %.not13.i = icmp eq i8 %55, 0
  br i1 %.not13.i, label %ffi_register_module.exit, label %56, !prof !27

56:                                               ; preds = %45
  %57 = load i64, ptr %14, align 8, !tbaa !24
  %58 = inttoptr i64 %57 to ptr
  %59 = and i8 %54, -5
  store i8 %59, ptr %53, align 8, !tbaa !23
  %60 = getelementptr inbounds nuw i8, ptr %58, i64 64
  %61 = load i64, ptr %60, align 8, !tbaa !28
  %62 = getelementptr inbounds nuw i8, ptr %47, i64 24
  store i64 %61, ptr %62, align 8, !tbaa !39
  store i64 %46, ptr %60, align 8, !tbaa !28
  br label %ffi_register_module.exit

ffi_register_module.exit:                         ; preds = %1, %42, %45, %56
  ret i32 1
}